; Function Attrs: mustprogress nounwind uwtable
define hidden void @_ZN5clang6driver10toolchains3AIXC2ERKNS0_6DriverERKN4llvm6TripleERKNS6_3opt7ArgListE(ptr noundef nonnull align 8 dereferenceable(2169) %0, ptr noundef nonnull align 8 dereferenceable(1192) %1, ptr noundef nonnull align 8 dereferenceable(56) %2, ptr noundef nonnull align 8 dereferenceable(176) %3) unnamed_addr #0 align 2 {
  %5 = alloca %"class.std::__cxx11::basic_string", align 8
  tail call void @_ZN5clang6driver9ToolChainC2ERKNS0_6DriverERKN4llvm6TripleERKNS5_3opt7ArgListE(ptr noundef nonnull align 8 dereferenceable(2168) %0, ptr noundef nonnull align 8 dereferenceable(1192) %1, ptr noundef nonnull align 8 dereferenceable(56) %2, ptr noundef nonnull align 8 dereferenceable(176) %3) #16
  store ptr getelementptr inbounds nuw inrange(-16, 736) (i8, ptr @_ZTVN5clang6driver10toolchains3AIXE, i64 16), ptr %0, align 8
  %6 = getelementptr inbounds nuw i8, ptr %0, i64 1152
  %7 = getelementptr inbounds nuw i8, ptr %0, i64 8
  %8 = load ptr, ptr %7, align 8
  %9 = getelementptr inbounds nuw i8, ptr %8, i64 80
  tail call void @_ZN4llvm23SmallVectorTemplateBaseINSt7__cxx1112basic_stringIcSt11char_traitsIcESaIcEEELb0EE9push_backERKS6_(ptr noundef nonnull align 8 dereferenceable(16) %6, ptr noundef nonnull align 8 dereferenceable(32) %9)
  %10 = tail call noundef zeroext i1 @_ZNK4llvm3opt7ArgList7hasFlagENS0_12OptSpecifierES2_b(ptr noundef nonnull align 8 dereferenceable(176) %3, i32 856, i32 1157, i1 noundef zeroext true) #16
  %11 = getelementptr inbounds nuw i8, ptr %0, i64 2168
  %12 = zext i1 %10 to i8
  store i8 %12, ptr %11, align 8
  %13 = getelementptr inbounds nuw i8, ptr %0, i64 96
  %14 = load ptr, ptr %7, align 8
  %15 = getelementptr inbounds nuw i8, ptr %14, i64 464
  call void @_ZNSt7__cxx1112basic_stringIcSt11char_traitsIcESaIcEEC1ERKS4_(ptr noundef nonnull align 8 dereferenceable(32) %5, ptr noundef nonnull align 8 dereferenceable(32) %15) #16
  %16 = call noundef nonnull align 8 dereferenceable(32) ptr @_ZNSt7__cxx1112basic_stringIcSt11char_traitsIcESaIcEE6appendEPKc(ptr noundef nonnull align 8 dereferenceable(32) %5, ptr noundef nonnull @.str.39) #16
  call void @_ZN4llvm23SmallVectorTemplateBaseINSt7__cxx1112basic_stringIcSt11char_traitsIcESaIcEEELb0EE9push_backEOS6_(ptr noundef nonnull align 8 dereferenceable(16) %13, ptr noundef nonnull align 8 dereferenceable(32) %5)
  call void @_ZNSt7__cxx1112basic_stringIcSt11char_traitsIcESaIcEED1Ev(ptr noundef nonnull align 8 dereferenceable(32) %5) #16
  ret void
}